; ModuleID = 'bench/opencv/original/ellipticKeyPoint.cpp.ll'
source_filename = "bench/opencv/original/ellipticKeyPoint.cpp.ll"
target datalayout = "e-m:e-p270:32:32-p271:32:32-p272:64:64-i64:64-i128:128-f80:128-n8:16:32:64-S128"
target triple = "x86_64-pc-linux-gnu"

$_ZTSN2cv8KeyPointE = comdat any

$_ZTIN2cv8KeyPointE = comdat any

@_ZTVN2cv11xfeatures2d17Elliptic_KeyPointE = unnamed_addr constant { [4 x ptr] } { [4 x ptr] [ptr null, ptr @_ZTIN2cv11xfeatures2d17Elliptic_KeyPointE, ptr @_ZN2cv11xfeatures2d17Elliptic_KeyPointD1Ev, ptr @_ZN2cv11xfeatures2d17Elliptic_KeyPointD0Ev] }, align 8
@_ZTVN10__cxxabiv121__vmi_class_type_infoE = external global [0 x ptr]
@_ZTSN2cv11xfeatures2d17Elliptic_KeyPointE = constant [38 x i8] c"N2cv11xfeatures2d17Elliptic_KeyPointE\00", align 1
@_ZTVN10__cxxabiv117__class_type_infoE = external global [0 x ptr]
@_ZTSN2cv8KeyPointE = linkonce_odr constant [15 x i8] c"N2cv8KeyPointE\00", comdat, align 1
@_ZTIN2cv8KeyPointE = linkonce_odr constant { ptr, ptr } { ptr getelementptr inbounds (ptr, ptr @_ZTVN10__cxxabiv117__class_type_infoE, i64 2), ptr @_ZTSN2cv8KeyPointE }, comdat, align 8
@_ZTIN2cv11xfeatures2d17Elliptic_KeyPointE = constant { ptr, ptr, i32, i32, ptr, i64 } { ptr getelementptr inbounds (ptr, ptr @_ZTVN10__cxxabiv121__vmi_class_type_infoE, i64 2), ptr @_ZTSN2cv11xfeatures2d17Elliptic_KeyPointE, i32 0, i32 1, ptr @_ZTIN2cv8KeyPointE, i64 2050 }, align 8

@_ZN2cv11xfeatures2d17Elliptic_KeyPointC1ENS_6Point_IfEEfNS_5Size_IiEEff = unnamed_addr alias void (ptr, <2 x float>, float, i64, float, float), ptr @_ZN2cv11xfeatures2d17Elliptic_KeyPointC2ENS_6Point_IfEEfNS_5Size_IiEEff
@_ZN2cv11xfeatures2d17Elliptic_KeyPointC1Ev = unnamed_addr alias void (ptr), ptr @_ZN2cv11xfeatures2d17Elliptic_KeyPointC2Ev
@_ZN2cv11xfeatures2d17Elliptic_KeyPointD1Ev = unnamed_addr alias void (ptr), ptr @_ZN2cv11xfeatures2d17Elliptic_KeyPointD2Ev

; Function Attrs: mustprogress nofree norecurse nosync nounwind willreturn memory(argmem: write) uwtable
define void @_ZN2cv11xfeatures2d17Elliptic_KeyPointC2ENS_6Point_IfEEfNS_5Size_IiEEff(ptr nocapture noundef nonnull writeonly align 8 dereferenceable(72) %0, <2 x float> %1, float noundef %2, i64 %3, float noundef %4, float noundef %5) unnamed_addr #0 align 2 {
  %.sroa.0.0.extract.trunc = trunc i64 %3 to i32
  %.sroa.2.0.extract.shift = lshr i64 %3, 32
  %.sroa.2.0.extract.trunc = trunc nuw i64 %.sroa.2.0.extract.shift to i32
  %7 = getelementptr inbounds i8, ptr %0, i64 8
  store <2 x float> %1, ptr %7, align 8
  %8 = getelementptr inbounds i8, ptr %0, i64 16
  store float %4, ptr %8, align 8
  %9 = getelementptr inbounds i8, ptr %0, i64 20
  store float %2, ptr %9, align 4
  %10 = getelementptr inbounds i8, ptr %0, i64 24
  store float 0.000000e+00, ptr %10, align 8
  %11 = getelementptr inbounds i8, ptr %0, i64 28
  store i32 0, ptr %11, align 4
  %12 = getelementptr inbounds i8, ptr %0, i64 32
  store i32 -1, ptr %12, align 8
  store ptr getelementptr inbounds inrange(-16, 16) (i8, ptr @_ZTVN2cv11xfeatures2d17Elliptic_KeyPointE, i64 16), ptr %0, align 8
  %13 = getelementptr inbounds i8, ptr %0, i64 36
  %14 = sitofp i32 %.sroa.0.0.extract.trunc to float
  %15 = sitofp i32 %.sroa.2.0.extract.trunc to float
  %.sroa.0.0.vec.insert.i = insertelement <2 x float> poison, float %14, i64 0
  %.sroa.0.4.vec.insert.i = insertelement <2 x float> %.sroa.0.0.vec.insert.i, float %15, i64 1
  store <2 x float> %.sroa.0.4.vec.insert.i, ptr %13, align 4
  %16 = getelementptr inbounds i8, ptr %0, i64 44
  store float %5, ptr %16, align 4
  %17 = getelementptr inbounds i8, ptr %0, i64 48
  tail call void @llvm.memset.p0.i64(ptr noundef nonnull align 8 dereferenceable(24) %17, i8 0, i64 24, i1 false)
  ret void
}

; Function Attrs: mustprogress nofree norecurse nosync nounwind willreturn memory(argmem: write) uwtable
define void @_ZN2cv11xfeatures2d17Elliptic_KeyPointC2Ev(ptr nocapture noundef nonnull writeonly align 8 dereferenceable(72) %0) unnamed_addr #1 align 2 {
  %2 = getelementptr inbounds i8, ptr %0, i64 8
  store <4 x float> <float 0.000000e+00, float 0.000000e+00, float 0.000000e+00, float -1.000000e+00>, ptr %2, align 8
  %3 = getelementptr inbounds i8, ptr %0, i64 24
  store float 0.000000e+00, ptr %3, align 8
  %4 = getelementptr inbounds i8, ptr %0, i64 28
  store i32 0, ptr %4, align 4
  %5 = getelementptr inbounds i8, ptr %0, i64 32
  store i32 -1, ptr %5, align 8
  store ptr getelementptr inbounds inrange(-16, 16) (i8, ptr @_ZTVN2cv11xfeatures2d17Elliptic_KeyPointE, i64 16), ptr %0, align 8
  %6 = getelementptr inbounds i8, ptr %0, i64 36
  store <2 x float> zeroinitializer, ptr %6, align 4
  %7 = getelementptr inbounds i8, ptr %0, i64 48
  tail call void @llvm.memset.p0.i64(ptr noundef nonnull align 8 dereferenceable(24) %7, i8 0, i64 24, i1 false)
  ret void
}

; Function Attrs: mustprogress nofree norecurse nosync nounwind willreturn memory(none) uwtable
define void @_ZN2cv11xfeatures2d17Elliptic_KeyPointD2Ev(ptr nocapture nonnull readnone align 8 %0) unnamed_addr #2 align 2 {
  ret void
}

; Function Attrs: mustprogress nounwind uwtable
define void @_ZN2cv11xfeatures2d17Elliptic_KeyPointD0Ev(ptr noundef nonnull align 8 dereferenceable(72) %0) unnamed_addr #3 align 2 {
  tail call void @_ZN2cv11xfeatures2d17Elliptic_KeyPointD1Ev(ptr noundef nonnull align 8 dereferenceable(72) %0) #6
  tail call void @_ZdlPv(ptr noundef nonnull %0) #7
  ret void
}

; Function Attrs: nobuiltin nounwind
declare void @_ZdlPv(ptr noundef) local_unnamed_addr #4

; Function Attrs: nocallback nofree nounwind willreturn memory(argmem: write)
declare void @llvm.memset.p0.i64(ptr nocapture writeonly, i8, i64, i1 immarg) #5


!llvm.module.flags = !{!0, !1, !2, !3}

!0 = !{i32 1, !"wchar_size", i32 4}
!1 = !{i32 8, !"PIC Level", i32 2}
!2 = !{i32 7, !"uwtable", i32 2}
!3 = !{i32 7, !"frame-pointer", i32 2}
